target datalayout = "e-m:e-p270:32:32-p271:32:32-p272:64:64-i64:64-i128:128-f80:128-n8:16:32:64-S128"
target triple = "x86_64-unknown-linux-gnu"

%union.FP32 = type { i32 }

@_ZZ26bcdec__half_to_float_quicktE5magic = internal constant %union.FP32 { i32 947912704 }, align 4

; Function Attrs: mustprogress nounwind uwtable
define hidden noundef float @_Z26bcdec__half_to_float_quickt(i16 noundef zeroext %half) #4 {
entry:
  %half.addr = alloca i16, align 2
  %o = alloca %union.FP32, align 4
  %exp = alloca i32, align 4
  store i16 %half, ptr %half.addr, align 2
  %0 = load i16, ptr %half.addr, align 2
  %conv = zext i16 %0 to i32
  %and = and i32 %conv, 32767
  %shl = shl i32 %and, 13
  store i32 %shl, ptr %o, align 4
  %1 = load i32, ptr %o, align 4
  %and1 = and i32 260046848, %1
  store i32 %and1, ptr %exp, align 4
  %2 = load i32, ptr %o, align 4
  %add = add i32 %2, 939524096
  store i32 %add, ptr %o, align 4
  %3 = load i32, ptr %exp, align 4
  %cmp = icmp eq i32 %3, 260046848
  br i1 %cmp, label %if.then, label %if.else

if.then:                                          ; preds = %entry
  %4 = load i32, ptr %o, align 4
  %add2 = add i32 %4, 939524096
  store i32 %add2, ptr %o, align 4
  br label %if.end6

if.else:                                          ; preds = %entry
  %5 = load i32, ptr %exp, align 4
  %cmp3 = icmp eq i32 %5, 0
  br i1 %cmp3, label %if.then4, label %if.end

if.then4:                                         ; preds = %if.else
  %6 = load i32, ptr %o, align 4
  %add5 = add i32 %6, 8388608
  store i32 %add5, ptr %o, align 4
  %7 = load float, ptr @_ZZ26bcdec__half_to_float_quicktE5magic, align 4
  %8 = load float, ptr %o, align 4
  %sub = fsub float %8, %7
  store float %sub, ptr %o, align 4
  br label %if.end

if.end:                                           ; preds = %if.then4, %if.else
  br label %if.end6

if.end6:                                          ; preds = %if.end, %if.then
  %9 = load i16, ptr %half.addr, align 2
  %conv7 = zext i16 %9 to i32
  %and8 = and i32 %conv7, 32768
  %shl9 = shl i32 %and8, 16
  %10 = load i32, ptr %o, align 4
  %or = or i32 %10, %shl9
  store i32 %or, ptr %o, align 4
  %11 = load float, ptr %o, align 4
  ret float %11
}

; Function Attrs: mustprogress nounwind uwtable
define hidden void @bcdec_bc6h_float(ptr noundef %compressedBlock, ptr noundef %decompressedBlock, i32 noundef %destinationPitch, i32 noundef %isSigned) #4 {
entry:
  %compressedBlock.addr = alloca ptr, align 8
  %decompressedBlock.addr = alloca ptr, align 8
  %destinationPitch.addr = alloca i32, align 4
  %isSigned.addr = alloca i32, align 4
  %block = alloca [48 x i16], align 16
  %decompressed = alloca ptr, align 8
  %b = alloca ptr, align 8
  %i = alloca i32, align 4
  %j = alloca i32, align 4
  store ptr %compressedBlock, ptr %compressedBlock.addr, align 8
  store ptr %decompressedBlock, ptr %decompressedBlock.addr, align 8
  store i32 %destinationPitch, ptr %destinationPitch.addr, align 4
  store i32 %isSigned, ptr %isSigned.addr, align 4
  %0 = load ptr, ptr %compressedBlock.addr, align 8
  %arraydecay = getelementptr inbounds [48 x i16], ptr %block, i64 0, i64 0
  %1 = load i32, ptr %isSigned.addr, align 4
  call void @bcdec_bc6h_half(ptr noundef %0, ptr noundef %arraydecay, i32 noundef 12, i32 noundef %1)
  %arraydecay1 = getelementptr inbounds [48 x i16], ptr %block, i64 0, i64 0
  store ptr %arraydecay1, ptr %b, align 8
  %2 = load ptr, ptr %decompressedBlock.addr, align 8
  store ptr %2, ptr %decompressed, align 8
  store i32 0, ptr %i, align 4
  br label %for.cond

for.cond:                                         ; preds = %for.inc17, %entry
  %3 = load i32, ptr %i, align 4
  %cmp = icmp slt i32 %3, 4
  br i1 %cmp, label %for.body, label %for.end19

for.body:                                         ; preds = %for.cond
  store i32 0, ptr %j, align 4
  br label %for.cond2

for.cond2:                                        ; preds = %for.inc, %for.body
  %4 = load i32, ptr %j, align 4
  %cmp3 = icmp slt i32 %4, 4
  br i1 %cmp3, label %for.body4, label %for.end

for.body4:                                        ; preds = %for.cond2
  %5 = load ptr, ptr %b, align 8
  %incdec.ptr = getelementptr inbounds i16, ptr %5, i32 1
  store ptr %incdec.ptr, ptr %b, align 8
  %6 = load i16, ptr %5, align 2
  %call = call noundef float @_Z26bcdec__half_to_float_quickt(i16 noundef zeroext %6)
  %7 = load ptr, ptr %decompressed, align 8
  %8 = load i32, ptr %j, align 4
  %mul = mul nsw i32 %8, 3
  %add = add nsw i32 %mul, 0
  %idxprom = sext i32 %add to i64
  %arrayidx = getelementptr inbounds float, ptr %7, i64 %idxprom
  store float %call, ptr %arrayidx, align 4
  %9 = load ptr, ptr %b, align 8
  %incdec.ptr5 = getelementptr inbounds i16, ptr %9, i32 1
  store ptr %incdec.ptr5, ptr %b, align 8
  %10 = load i16, ptr %9, align 2
  %call6 = call noundef float @_Z26bcdec__half_to_float_quickt(i16 noundef zeroext %10)
  %11 = load ptr, ptr %decompressed, align 8
  %12 = load i32, ptr %j, align 4
  %mul7 = mul nsw i32 %12, 3
  %add8 = add nsw i32 %mul7, 1
  %idxprom9 = sext i32 %add8 to i64
  %arrayidx10 = getelementptr inbounds float, ptr %11, i64 %idxprom9
  store float %call6, ptr %arrayidx10, align 4
  %13 = load ptr, ptr %b, align 8
  %incdec.ptr11 = getelementptr inbounds i16, ptr %13, i32 1
  store ptr %incdec.ptr11, ptr %b, align 8
  %14 = load i16, ptr %13, align 2
  %call12 = call noundef float @_Z26bcdec__half_to_float_quickt(i16 noundef zeroext %14)
  %15 = load ptr, ptr %decompressed, align 8
  %16 = load i32, ptr %j, align 4
  %mul13 = mul nsw i32 %16, 3
  %add14 = add nsw i32 %mul13, 2
  %idxprom15 = sext i32 %add14 to i64
  %arrayidx16 = getelementptr inbounds float, ptr %15, i64 %idxprom15
  store float %call12, ptr %arrayidx16, align 4
  br label %for.inc

for.inc:                                          ; preds = %for.body4
  %17 = load i32, ptr %j, align 4
  %inc = add nsw i32 %17, 1
  store i32 %inc, ptr %j, align 4
  br label %for.cond2, !llvm.loop !18

for.end:                                          ; preds = %for.cond2
  %18 = load i32, ptr %destinationPitch.addr, align 4
  %19 = load ptr, ptr %decompressed, align 8
  %idx.ext = sext i32 %18 to i64
  %add.ptr = getelementptr inbounds float, ptr %19, i64 %idx.ext
  store ptr %add.ptr, ptr %decompressed, align 8
  br label %for.inc17

for.inc17:                                        ; preds = %for.end
  %20 = load i32, ptr %i, align 4
  %inc18 = add nsw i32 %20, 1
  store i32 %inc18, ptr %i, align 4
  br label %for.cond, !llvm.loop !19

for.end19:                                        ; preds = %for.cond
  ret void
}