; Function Attrs: mustprogress nofree norecurse nosync nounwind memory(readwrite, inaccessiblemem: none) uwtable
define hidden void @bcdec_bc6h_float(ptr nocapture noundef readonly %compressedBlock, ptr nocapture noundef writeonly %decompressedBlock, i32 noundef %destinationPitch, i32 noundef %isSigned) local_unnamed_addr #10 {
entry:
  %block = alloca [48 x i16], align 16
  call void @bcdec_bc6h_half(ptr noundef %compressedBlock, ptr noundef nonnull %block, i32 noundef 12, i32 noundef %isSigned)
  %idx.ext = sext i32 %destinationPitch to i64
  br label %for.cond2.preheader

for.cond2.preheader:                              ; preds = %entry, %for.end
  %i.051 = phi i32 [ 0, %entry ], [ %inc18, %for.end ]
  %b.050 = phi ptr [ %block, %entry ], [ %incdec.ptr11, %for.end ]
  %decompressed.049 = phi ptr [ %decompressedBlock, %entry ], [ %add.ptr, %for.end ]
  br label %for.body4

for.body4:                                        ; preds = %for.cond2.preheader, %_Z26bcdec__half_to_float_quickt.exit46
  %indvars.iv = phi i64 [ 0, %for.cond2.preheader ], [ %indvars.iv.next, %_Z26bcdec__half_to_float_quickt.exit46 ]
  %b.147 = phi ptr [ %b.050, %for.cond2.preheader ], [ %incdec.ptr11, %_Z26bcdec__half_to_float_quickt.exit46 ]
  %incdec.ptr = getelementptr inbounds i8, ptr %b.147, i64 2
  %0 = load i16, ptr %b.147, align 2
  %conv.i = zext i16 %0 to i32
  %and.i = shl nuw nsw i32 %conv.i, 13
  %and1.i = and i32 %and.i, 260046848
  %cmp.i = icmp eq i32 %and1.i, 260046848
  br i1 %cmp.i, label %if.then.i, label %if.else.i

if.then.i:                                        ; preds = %for.body4
  %add2.i = or i32 %and.i, 1879048192
  br label %_Z26bcdec__half_to_float_quickt.exit

if.else.i:                                        ; preds = %for.body4
  %shl.i = and i32 %and.i, 268427264
  %add.i = add nuw nsw i32 %shl.i, 939524096
  %cmp3.i = icmp eq i32 %and1.i, 0
  br i1 %cmp3.i, label %if.then4.i, label %_Z26bcdec__half_to_float_quickt.exit

if.then4.i:                                       ; preds = %if.else.i
  %add5.i = or i32 %and.i, 947912704
  %1 = bitcast i32 %add5.i to float
  %sub.i = fadd float %1, 0xBF10000000000000
  %2 = bitcast float %sub.i to i32
  br label %_Z26bcdec__half_to_float_quickt.exit

_Z26bcdec__half_to_float_quickt.exit:             ; preds = %if.then.i, %if.else.i, %if.then4.i
  %o.sroa.0.0.i = phi i32 [ %add2.i, %if.then.i ], [ %2, %if.then4.i ], [ %add.i, %if.else.i ]
  %half.signext.i = sext i16 %0 to i32
  %shl9.i = and i32 %half.signext.i, -2147483648
  %or.i = or i32 %o.sroa.0.0.i, %shl9.i
  %3 = mul nuw nsw i64 %indvars.iv, 3
  %arrayidx = getelementptr inbounds float, ptr %decompressed.049, i64 %3
  store i32 %or.i, ptr %arrayidx, align 4
  %incdec.ptr5 = getelementptr inbounds i8, ptr %b.147, i64 4
  %4 = load i16, ptr %incdec.ptr, align 2
  %conv.i11 = zext i16 %4 to i32
  %and.i12 = shl nuw nsw i32 %conv.i11, 13
  %and1.i13 = and i32 %and.i12, 260046848
  %cmp.i14 = icmp eq i32 %and1.i13, 260046848
  br i1 %cmp.i14, label %if.then.i26, label %if.else.i15

if.then.i26:                                      ; preds = %_Z26bcdec__half_to_float_quickt.exit
  %add2.i27 = or i32 %and.i12, 1879048192
  br label %_Z26bcdec__half_to_float_quickt.exit28

if.else.i15:                                      ; preds = %_Z26bcdec__half_to_float_quickt.exit
  %shl.i16 = and i32 %and.i12, 268427264
  %add.i17 = add nuw nsw i32 %shl.i16, 939524096
  %cmp3.i18 = icmp eq i32 %and1.i13, 0
  br i1 %cmp3.i18, label %if.then4.i23, label %_Z26bcdec__half_to_float_quickt.exit28

if.then4.i23:                                     ; preds = %if.else.i15
  %add5.i24 = or i32 %and.i12, 947912704
  %5 = bitcast i32 %add5.i24 to float
  %sub.i25 = fadd float %5, 0xBF10000000000000
  %6 = bitcast float %sub.i25 to i32
  br label %_Z26bcdec__half_to_float_quickt.exit28

_Z26bcdec__half_to_float_quickt.exit28:           ; preds = %if.then.i26, %if.else.i15, %if.then4.i23
  %o.sroa.0.0.i19 = phi i32 [ %add2.i27, %if.then.i26 ], [ %6, %if.then4.i23 ], [ %add.i17, %if.else.i15 ]
  %half.signext.i20 = sext i16 %4 to i32
  %shl9.i21 = and i32 %half.signext.i20, -2147483648
  %or.i22 = or i32 %o.sroa.0.0.i19, %shl9.i21
  %7 = add nuw nsw i64 %3, 1
  %arrayidx10 = getelementptr inbounds float, ptr %decompressed.049, i64 %7
  store i32 %or.i22, ptr %arrayidx10, align 4
  %incdec.ptr11 = getelementptr inbounds i8, ptr %b.147, i64 6
  %8 = load i16, ptr %incdec.ptr5, align 2
  %conv.i29 = zext i16 %8 to i32
  %and.i30 = shl nuw nsw i32 %conv.i29, 13
  %and1.i31 = and i32 %and.i30, 260046848
  %cmp.i32 = icmp eq i32 %and1.i31, 260046848
  br i1 %cmp.i32, label %if.then.i44, label %if.else.i33

if.then.i44:                                      ; preds = %_Z26bcdec__half_to_float_quickt.exit28
  %add2.i45 = or i32 %and.i30, 1879048192
  br label %_Z26bcdec__half_to_float_quickt.exit46

if.else.i33:                                      ; preds = %_Z26bcdec__half_to_float_quickt.exit28
  %shl.i34 = and i32 %and.i30, 268427264
  %add.i35 = add nuw nsw i32 %shl.i34, 939524096
  %cmp3.i36 = icmp eq i32 %and1.i31, 0
  br i1 %cmp3.i36, label %if.then4.i41, label %_Z26bcdec__half_to_float_quickt.exit46

if.then4.i41:                                     ; preds = %if.else.i33
  %add5.i42 = or i32 %and.i30, 947912704
  %9 = bitcast i32 %add5.i42 to float
  %sub.i43 = fadd float %9, 0xBF10000000000000
  %10 = bitcast float %sub.i43 to i32
  br label %_Z26bcdec__half_to_float_quickt.exit46

_Z26bcdec__half_to_float_quickt.exit46:           ; preds = %if.then.i44, %if.else.i33, %if.then4.i41
  %o.sroa.0.0.i37 = phi i32 [ %add2.i45, %if.then.i44 ], [ %10, %if.then4.i41 ], [ %add.i35, %if.else.i33 ]
  %half.signext.i38 = sext i16 %8 to i32
  %shl9.i39 = and i32 %half.signext.i38, -2147483648
  %or.i40 = or i32 %o.sroa.0.0.i37, %shl9.i39
  %11 = add nuw nsw i64 %3, 2
  %arrayidx16 = getelementptr inbounds float, ptr %decompressed.049, i64 %11
  store i32 %or.i40, ptr %arrayidx16, align 4
  %indvars.iv.next = add nuw nsw i64 %indvars.iv, 1
  %exitcond.not = icmp eq i64 %indvars.iv.next, 4
  br i1 %exitcond.not, label %for.end, label %for.body4, !llvm.loop !17

for.end:                                          ; preds = %_Z26bcdec__half_to_float_quickt.exit46
  %add.ptr = getelementptr inbounds float, ptr %decompressed.049, i64 %idx.ext
  %inc18 = add nuw nsw i32 %i.051, 1
  %exitcond56.not = icmp eq i32 %inc18, 4
  br i1 %exitcond56.not, label %for.end19, label %for.cond2.preheader, !llvm.loop !18

for.end19:                                        ; preds = %for.end
  ret void
}